; Function Attrs: nounwind uwtable
define ptr @l_Lean_Meta_DiscrTree_Trie_foldValuesM___rarg___lambda__1(ptr noundef %0, ptr noundef %1, ptr noundef %2, ptr noundef %3) #2 {
lean_nat_lt.exit:
  %4 = getelementptr i8, ptr %0, i64 8
  %.val = load i64, ptr %4, align 8, !tbaa !14
  %.mask = and i64 %.val, 9223372036854775807
  %.not = icmp eq i64 %.mask, 0
  br i1 %.not, label %lean_dec.exit49, label %lean_dec.exit

lean_dec.exit49:                                  ; preds = %lean_nat_lt.exit
  %5 = ptrtoint ptr %2 to i64
  %6 = and i64 %5, 1
  %.not86 = icmp eq i64 %6, 0
  br i1 %.not86, label %7, label %lean_dec.exit48

7:                                                ; preds = %lean_dec.exit49
  %8 = load i32, ptr %2, align 4, !tbaa !4
  %9 = icmp sgt i32 %8, 1
  br i1 %9, label %10, label %12, !prof !11

10:                                               ; preds = %7
  %11 = add nsw i32 %8, -1
  store i32 %11, ptr %2, align 4, !tbaa !4
  br label %lean_dec.exit48

12:                                               ; preds = %7
  %.not.i53 = icmp eq i32 %8, 0
  br i1 %.not.i53, label %lean_dec.exit48, label %13

13:                                               ; preds = %12
  tail call void @lean_dec_ref_cold(ptr noundef nonnull %2) #7
  br label %lean_dec.exit48

lean_dec.exit48:                                  ; preds = %13, %12, %10, %lean_dec.exit49
  %14 = ptrtoint ptr %0 to i64
  %15 = and i64 %14, 1
  %.not87 = icmp eq i64 %15, 0
  br i1 %.not87, label %16, label %lean_dec.exit47

16:                                               ; preds = %lean_dec.exit48
  %17 = load i32, ptr %0, align 4, !tbaa !4
  %18 = icmp sgt i32 %17, 1
  br i1 %18, label %19, label %21, !prof !11

19:                                               ; preds = %16
  %20 = add nsw i32 %17, -1
  store i32 %20, ptr %0, align 4, !tbaa !4
  br label %lean_dec.exit47

21:                                               ; preds = %16
  %.not.i55 = icmp eq i32 %17, 0
  br i1 %.not.i55, label %lean_dec.exit47, label %22

22:                                               ; preds = %21
  tail call void @lean_dec_ref_cold(ptr noundef nonnull %0) #7
  br label %lean_dec.exit47

lean_dec.exit47:                                  ; preds = %22, %21, %19, %lean_dec.exit48
  %23 = getelementptr inbounds nuw i8, ptr %1, i64 8
  %24 = load ptr, ptr %23, align 8, !tbaa !9
  %25 = ptrtoint ptr %24 to i64
  %26 = and i64 %25, 1
  %.not88 = icmp eq i64 %26, 0
  br i1 %.not88, label %27, label %lean_inc.exit52

27:                                               ; preds = %lean_dec.exit47
  %.val.i = load i32, ptr %24, align 4, !tbaa !4
  %28 = icmp sgt i32 %.val.i, 0
  br i1 %28, label %29, label %31, !prof !11

29:                                               ; preds = %27
  %30 = add nuw i32 %.val.i, 1
  store i32 %30, ptr %24, align 4, !tbaa !4
  br label %lean_inc.exit52

31:                                               ; preds = %27
  %.not.i75 = icmp eq i32 %.val.i, 0
  br i1 %.not.i75, label %lean_inc.exit52, label %32

32:                                               ; preds = %31
  tail call void @lean_inc_ref_cold(ptr noundef nonnull %24) #7
  br label %lean_inc.exit52

lean_inc.exit52:                                  ; preds = %32, %31, %29, %lean_dec.exit47
  %33 = ptrtoint ptr %1 to i64
  %34 = and i64 %33, 1
  %.not89 = icmp eq i64 %34, 0
  br i1 %.not89, label %35, label %lean_dec.exit46

35:                                               ; preds = %lean_inc.exit52
  %36 = load i32, ptr %1, align 4, !tbaa !4
  %37 = icmp sgt i32 %36, 1
  br i1 %37, label %38, label %40, !prof !11

38:                                               ; preds = %35
  %39 = add nsw i32 %36, -1
  store i32 %39, ptr %1, align 4, !tbaa !4
  br label %lean_dec.exit46

40:                                               ; preds = %35
  %.not.i57 = icmp eq i32 %36, 0
  br i1 %.not.i57, label %lean_dec.exit46, label %41

41:                                               ; preds = %40
  tail call void @lean_dec_ref_cold(ptr noundef nonnull %1) #7
  br label %lean_dec.exit46

lean_dec.exit46:                                  ; preds = %41, %40, %38, %lean_inc.exit52
  %42 = getelementptr inbounds nuw i8, ptr %24, i64 16
  %43 = load ptr, ptr %42, align 8, !tbaa !9
  %44 = ptrtoint ptr %43 to i64
  %45 = and i64 %44, 1
  %.not90 = icmp eq i64 %45, 0
  br i1 %.not90, label %46, label %lean_inc.exit51

46:                                               ; preds = %lean_dec.exit46
  %.val.i76 = load i32, ptr %43, align 4, !tbaa !4
  %47 = icmp sgt i32 %.val.i76, 0
  br i1 %47, label %48, label %50, !prof !11

48:                                               ; preds = %46
  %49 = add nuw i32 %.val.i76, 1
  store i32 %49, ptr %43, align 4, !tbaa !4
  br label %lean_inc.exit51

50:                                               ; preds = %46
  %.not.i77 = icmp eq i32 %.val.i76, 0
  br i1 %.not.i77, label %lean_inc.exit51, label %51

51:                                               ; preds = %50
  tail call void @lean_inc_ref_cold(ptr noundef nonnull %43) #7
  br label %lean_inc.exit51

lean_inc.exit51:                                  ; preds = %51, %50, %48, %lean_dec.exit46
  br i1 %.not88, label %52, label %lean_dec.exit45

52:                                               ; preds = %lean_inc.exit51
  %53 = load i32, ptr %24, align 4, !tbaa !4
  %54 = icmp sgt i32 %53, 1
  br i1 %54, label %55, label %57, !prof !11

55:                                               ; preds = %52
  %56 = add nsw i32 %53, -1
  store i32 %56, ptr %24, align 4, !tbaa !4
  br label %lean_dec.exit45

57:                                               ; preds = %52
  %.not.i59 = icmp eq i32 %53, 0
  br i1 %.not.i59, label %lean_dec.exit45, label %58

58:                                               ; preds = %57
  tail call void @lean_dec_ref_cold(ptr noundef nonnull %24) #7
  br label %lean_dec.exit45

lean_dec.exit45:                                  ; preds = %58, %57, %55, %lean_inc.exit51
  %59 = tail call ptr @lean_apply_2(ptr noundef %43, ptr noundef nonnull inttoptr (i64 1 to ptr), ptr noundef %3) #7
  br label %61

lean_dec.exit:                                    ; preds = %lean_nat_lt.exit
  %60 = tail call ptr @l_Array_foldlMUnsafe_fold___at_Lean_Meta_DiscrTree_Trie_foldValuesM___spec__1___rarg(ptr noundef %1, ptr noundef %2, ptr noundef nonnull %0, i64 noundef 0, i64 noundef %.mask, ptr noundef %3)
  br label %61

61:                                               ; preds = %lean_dec.exit, %lean_dec.exit45
  %.0 = phi ptr [ %59, %lean_dec.exit45 ], [ %60, %lean_dec.exit ]
  ret ptr %.0
}